target datalayout = "e-m:e-p270:32:32-p271:32:32-p272:64:64-i64:64-i128:128-f80:128-n8:16:32:64-S128"
target triple = "x86_64-pc-linux-gnu"

; Function Attrs: mustprogress nounwind uwtable
define noundef i32 @_ZN6icu_7716SimpleDateFormat16getLevelFromCharEDs(i16 noundef zeroext %0) #0 align 2 {
  %2 = alloca i16, align 2
  store i16 %0, ptr %2, align 2, !tbaa !141
  %3 = load i16, ptr %2, align 2, !tbaa !141
  %4 = zext i16 %3 to i32
  %5 = icmp slt i32 %4, 128
  br i1 %5, label %6, label %11

6:                                                ; preds = %1
  %7 = load i16, ptr %2, align 2, !tbaa !141
  %8 = zext i16 %7 to i64
  %9 = getelementptr inbounds nuw [128 x i32], ptr @_ZZN6icu_7716SimpleDateFormat16getLevelFromCharEDsE14mapCharToLevel, i64 0, i64 %8
  %10 = load i32, ptr %9, align 4, !tbaa !14
  br label %12

11:                                               ; preds = %1
  br label %12

12:                                               ; preds = %11, %6
  %13 = phi i32 [ %10, %6 ], [ -1, %11 ]
  ret i32 %13
}