; Function Attrs: mustprogress nofree norecurse nosync nounwind willreturn memory(none) uwtable
define noundef i32 @_ZN6icu_7716SimpleDateFormat16getLevelFromCharEDs(i16 noundef zeroext %0) local_unnamed_addr #10 align 2 {
  %2 = icmp ult i16 %0, 128
  br i1 %2, label %3, label %7

3:                                                ; preds = %1
  %4 = zext nneg i16 %0 to i64
  %5 = getelementptr inbounds nuw [128 x i32], ptr @_ZZN6icu_7716SimpleDateFormat16getLevelFromCharEDsE14mapCharToLevel, i64 0, i64 %4
  %6 = load i32, ptr %5, align 4, !tbaa !12
  br label %7

7:                                                ; preds = %1, %3
  %8 = phi i32 [ %6, %3 ], [ -1, %1 ]
  ret i32 %8
}